; Function Attrs: mustprogress nounwind uwtable
define internal fastcc void @_ZNSt4pairIN7rocksdb8IOStatusESt10unique_ptrINS0_12_GLOBAL__N_116BackupEngineImpl10BackupMetaESt14default_deleteIS5_EEED2Ev(ptr nocapture noundef nonnull align 8 dereferenceable(24) %this) unnamed_addr #0 align 2 {
entry:
  %second = getelementptr inbounds i8, ptr %this, i64 16
  tail call fastcc void @_ZNSt10unique_ptrIN7rocksdb12_GLOBAL__N_116BackupEngineImpl10BackupMetaESt14default_deleteIS3_EED2Ev(ptr noundef nonnull align 8 dereferenceable(8) %second) #33
  %state_.i.i = getelementptr inbounds i8, ptr %this, i64 8
  %0 = load ptr, ptr %state_.i.i, align 8
  %cmp.not.i.i.i = icmp eq ptr %0, null
  br i1 %cmp.not.i.i.i, label %_ZN7rocksdb8IOStatusD2Ev.exit, label %_ZNKSt14default_deleteIA_KcEclIS0_EENSt9enable_ifIXsr14is_convertibleIPA_T_PS1_EE5valueEvE4typeEPS5_.exit.i.i.i

_ZNKSt14default_deleteIA_KcEclIS0_EENSt9enable_ifIXsr14is_convertibleIPA_T_PS1_EE5valueEvE4typeEPS5_.exit.i.i.i: ; preds = %entry
  tail call void @_ZdaPv(ptr noundef nonnull %0) #31
  br label %_ZN7rocksdb8IOStatusD2Ev.exit

_ZN7rocksdb8IOStatusD2Ev.exit:                    ; preds = %entry, %_ZNKSt14default_deleteIA_KcEclIS0_EENSt9enable_ifIXsr14is_convertibleIPA_T_PS1_EE5valueEvE4typeEPS5_.exit.i.i.i
  store ptr null, ptr %state_.i.i, align 8
  ret void
}